target datalayout = "e-m:e-p270:32:32-p271:32:32-p272:64:64-i64:64-i128:128-f80:128-n8:16:32:64-S128"
target triple = "x86_64-pc-linux-gnu"

%struct.sharedObjectsStruct = type { ptr, ptr, ptr, ptr, ptr, ptr, ptr, ptr, [4 x ptr], [4 x ptr], [4 x ptr], [4 x ptr], ptr, ptr, ptr, ptr, ptr, ptr, ptr, ptr, ptr, ptr, ptr, ptr, ptr, ptr, ptr, ptr, ptr, ptr, ptr, ptr, ptr, ptr, ptr, ptr, ptr, ptr, ptr, ptr, ptr, ptr, ptr, ptr, ptr, ptr, ptr, ptr, ptr, ptr, ptr, ptr, ptr, ptr, ptr, ptr, ptr, ptr, ptr, ptr, ptr, ptr, ptr, ptr, ptr, ptr, ptr, ptr, ptr, ptr, ptr, ptr, ptr, ptr, ptr, ptr, ptr, ptr, ptr, ptr, ptr, ptr, ptr, ptr, ptr, ptr, ptr, ptr, [10 x ptr], [10000 x ptr], [32 x ptr], [32 x ptr], [32 x ptr], [32 x ptr], ptr, ptr }
%struct.redisObject = type { i32, i32, ptr }
%struct.client = type { i64, i64, ptr, i8, i8, i8, i8, i32, ptr, ptr, ptr, ptr, ptr, i64, i64, i32, ptr, i32, i32, ptr, i64, ptr, ptr, ptr, ptr, ptr, i32, i32, i64, ptr, i64, ptr, i64, i64, i64, i32, ptr, i64, i64, i32, i32, i32, i32, i64, i64, ptr, i64, i64, i64, i64, i64, i64, i64, i64, [41 x i8], i32, ptr, i32, i32, i64, %struct.multiState, %struct.blockingState, i64, ptr, ptr, ptr, ptr, ptr, ptr, ptr, ptr, ptr, ptr, ptr, ptr, ptr, ptr, i64, ptr, i64, i32, ptr, ptr, ptr, i64, %struct.listNode, i64, i64, i32, i64, ptr }
%struct.multiState = type { ptr, i32, i32, i32, i64, i32 }
%struct.blockingState = type { i32, i64, i32, ptr, i32, i32, i64, ptr, ptr, i64 }
%struct.listNode = type { ptr, ptr, ptr }

@shared = external global %struct.sharedObjectsStruct, align 8
@.str.18 = private unnamed_addr constant [33 x i8] c"numkeys should be greater than 0\00", align 1
@.str.19 = private unnamed_addr constant [52 x i8] c"Number of keys can't be greater than number of args\00", align 1
@.str.20 = private unnamed_addr constant [6 x i8] c"LIMIT\00", align 1
@.str.21 = private unnamed_addr constant [24 x i8] c"LIMIT can't be negative\00", align 1

; Function Attrs: nounwind uwtable
define dso_local void @sinterCardCommand(ptr noundef %0) #0 {
  %2 = alloca ptr, align 8
  %3 = alloca i64, align 8
  %4 = alloca i64, align 8
  %5 = alloca i64, align 8
  %6 = alloca i32, align 4
  %7 = alloca ptr, align 8
  %8 = alloca i32, align 4
  store ptr %0, ptr %2, align 8, !tbaa !71
  call void @llvm.lifetime.start.p0(i64 8, ptr %3) #10
  call void @llvm.lifetime.start.p0(i64 8, ptr %4) #10
  store i64 0, ptr %4, align 8, !tbaa !10
  call void @llvm.lifetime.start.p0(i64 8, ptr %5) #10
  store i64 0, ptr %5, align 8, !tbaa !10
  %9 = load ptr, ptr %2, align 8, !tbaa !71
  %10 = load ptr, ptr %2, align 8, !tbaa !71
  %11 = getelementptr inbounds nuw %struct.client, ptr %10, i32 0, i32 16
  %12 = load ptr, ptr %11, align 8, !tbaa !81
  %13 = getelementptr inbounds ptr, ptr %12, i64 1
  %14 = load ptr, ptr %13, align 8, !tbaa !41
  %15 = call i32 @getRangeLongFromObjectOrReply(ptr noundef %9, ptr noundef %14, i64 noundef 1, i64 noundef 9223372036854775807, ptr noundef %4, ptr noundef @.str.18)
  %16 = icmp ne i32 %15, 0
  br i1 %16, label %17, label %18

17:                                               ; preds = %1
  store i32 1, ptr %6, align 4
  br label %93

18:                                               ; preds = %1
  %19 = load i64, ptr %4, align 8, !tbaa !10
  %20 = load ptr, ptr %2, align 8, !tbaa !71
  %21 = getelementptr inbounds nuw %struct.client, ptr %20, i32 0, i32 15
  %22 = load i32, ptr %21, align 8, !tbaa !82
  %23 = sub nsw i32 %22, 2
  %24 = sext i32 %23 to i64
  %25 = icmp sgt i64 %19, %24
  br i1 %25, label %26, label %28

26:                                               ; preds = %18
  %27 = load ptr, ptr %2, align 8, !tbaa !71
  call void @addReplyError(ptr noundef %27, ptr noundef @.str.19)
  store i32 1, ptr %6, align 4
  br label %93

28:                                               ; preds = %18
  %29 = load i64, ptr %4, align 8, !tbaa !10
  %30 = add nsw i64 2, %29
  store i64 %30, ptr %3, align 8, !tbaa !10
  br label %31

31:                                               ; preds = %82, %28
  %32 = load i64, ptr %3, align 8, !tbaa !10
  %33 = load ptr, ptr %2, align 8, !tbaa !71
  %34 = getelementptr inbounds nuw %struct.client, ptr %33, i32 0, i32 15
  %35 = load i32, ptr %34, align 8, !tbaa !82
  %36 = sext i32 %35 to i64
  %37 = icmp slt i64 %32, %36
  br i1 %37, label %38, label %85

38:                                               ; preds = %31
  call void @llvm.lifetime.start.p0(i64 8, ptr %7) #10
  %39 = load ptr, ptr %2, align 8, !tbaa !71
  %40 = getelementptr inbounds nuw %struct.client, ptr %39, i32 0, i32 16
  %41 = load ptr, ptr %40, align 8, !tbaa !81
  %42 = load i64, ptr %3, align 8, !tbaa !10
  %43 = getelementptr inbounds ptr, ptr %41, i64 %42
  %44 = load ptr, ptr %43, align 8, !tbaa !41
  %45 = getelementptr inbounds nuw %struct.redisObject, ptr %44, i32 0, i32 2
  %46 = load ptr, ptr %45, align 8, !tbaa !43
  store ptr %46, ptr %7, align 8, !tbaa !5
  call void @llvm.lifetime.start.p0(i64 4, ptr %8) #10
  %47 = load ptr, ptr %2, align 8, !tbaa !71
  %48 = getelementptr inbounds nuw %struct.client, ptr %47, i32 0, i32 15
  %49 = load i32, ptr %48, align 8, !tbaa !82
  %50 = sub nsw i32 %49, 1
  %51 = sext i32 %50 to i64
  %52 = load i64, ptr %3, align 8, !tbaa !10
  %53 = sub nsw i64 %51, %52
  %54 = trunc i64 %53 to i32
  store i32 %54, ptr %8, align 4, !tbaa !45
  %55 = load ptr, ptr %7, align 8, !tbaa !5
  %56 = call i32 @strcasecmp(ptr noundef %55, ptr noundef @.str.20) #13
  %57 = icmp ne i32 %56, 0
  br i1 %57, label %75, label %58

58:                                               ; preds = %38
  %59 = load i32, ptr %8, align 4, !tbaa !45
  %60 = icmp ne i32 %59, 0
  br i1 %60, label %61, label %75

61:                                               ; preds = %58
  %62 = load i64, ptr %3, align 8, !tbaa !10
  %63 = add nsw i64 %62, 1
  store i64 %63, ptr %3, align 8, !tbaa !10
  %64 = load ptr, ptr %2, align 8, !tbaa !71
  %65 = load ptr, ptr %2, align 8, !tbaa !71
  %66 = getelementptr inbounds nuw %struct.client, ptr %65, i32 0, i32 16
  %67 = load ptr, ptr %66, align 8, !tbaa !81
  %68 = load i64, ptr %3, align 8, !tbaa !10
  %69 = getelementptr inbounds ptr, ptr %67, i64 %68
  %70 = load ptr, ptr %69, align 8, !tbaa !41
  %71 = call i32 @getPositiveLongFromObjectOrReply(ptr noundef %64, ptr noundef %70, ptr noundef %5, ptr noundef @.str.21)
  %72 = icmp ne i32 %71, 0
  br i1 %72, label %73, label %74

73:                                               ; preds = %61
  store i32 1, ptr %6, align 4
  br label %79

74:                                               ; preds = %61
  br label %78

75:                                               ; preds = %58, %38
  %76 = load ptr, ptr %2, align 8, !tbaa !71
  %77 = load ptr, ptr getelementptr inbounds nuw (%struct.sharedObjectsStruct, ptr @shared, i32 0, i32 15), align 8, !tbaa !116
  call void @addReplyErrorObject(ptr noundef %76, ptr noundef %77)
  store i32 1, ptr %6, align 4
  br label %79

78:                                               ; preds = %74
  store i32 0, ptr %6, align 4
  br label %79

79:                                               ; preds = %78, %75, %73
  call void @llvm.lifetime.end.p0(i64 4, ptr %8) #10
  call void @llvm.lifetime.end.p0(i64 8, ptr %7) #10
  %80 = load i32, ptr %6, align 4
  switch i32 %80, label %93 [
    i32 0, label %81
  ]

81:                                               ; preds = %79
  br label %82

82:                                               ; preds = %81
  %83 = load i64, ptr %3, align 8, !tbaa !10
  %84 = add nsw i64 %83, 1
  store i64 %84, ptr %3, align 8, !tbaa !10
  br label %31, !llvm.loop !138

85:                                               ; preds = %31
  %86 = load ptr, ptr %2, align 8, !tbaa !71
  %87 = load ptr, ptr %2, align 8, !tbaa !71
  %88 = getelementptr inbounds nuw %struct.client, ptr %87, i32 0, i32 16
  %89 = load ptr, ptr %88, align 8, !tbaa !81
  %90 = getelementptr inbounds ptr, ptr %89, i64 2
  %91 = load i64, ptr %4, align 8, !tbaa !10
  %92 = load i64, ptr %5, align 8, !tbaa !10
  call void @sinterGenericCommand(ptr noundef %86, ptr noundef %90, i64 noundef %91, ptr noundef null, i32 noundef 1, i64 noundef %92)
  store i32 0, ptr %6, align 4
  br label %93

93:                                               ; preds = %85, %79, %26, %17
  call void @llvm.lifetime.end.p0(i64 8, ptr %5) #10
  call void @llvm.lifetime.end.p0(i64 8, ptr %4) #10
  call void @llvm.lifetime.end.p0(i64 8, ptr %3) #10
  %94 = load i32, ptr %6, align 4
  switch i32 %94, label %96 [
    i32 0, label %95
    i32 1, label %95
  ]

95:                                               ; preds = %93, %93
  ret void

96:                                               ; preds = %93
  unreachable
}