; Function Attrs: nounwind uwtable
define dso_local void @sinterCardCommand(ptr noundef %0) local_unnamed_addr #0 {
  %2 = alloca i64, align 8
  %3 = alloca i64, align 8
  call void @llvm.lifetime.start.p0(i64 8, ptr nonnull %2) #10
  store i64 0, ptr %2, align 8, !tbaa !50
  call void @llvm.lifetime.start.p0(i64 8, ptr nonnull %3) #10
  store i64 0, ptr %3, align 8, !tbaa !50
  %4 = getelementptr inbounds nuw i8, ptr %0, i64 96
  %5 = load ptr, ptr %4, align 8, !tbaa !72
  %6 = getelementptr inbounds nuw i8, ptr %5, i64 8
  %7 = load ptr, ptr %6, align 8, !tbaa !73
  %8 = call i32 @getRangeLongFromObjectOrReply(ptr noundef %0, ptr noundef %7, i64 noundef 1, i64 noundef 9223372036854775807, ptr noundef nonnull %2, ptr noundef nonnull @.str.18) #10
  %.not = icmp eq i32 %8, 0
  br i1 %.not, label %9, label %.loopexit

9:                                                ; preds = %1
  %10 = load i64, ptr %2, align 8, !tbaa !50
  %11 = getelementptr inbounds nuw i8, ptr %0, i64 88
  %12 = load i32, ptr %11, align 8, !tbaa !74
  %13 = add nsw i32 %12, -2
  %14 = sext i32 %13 to i64
  %15 = icmp sgt i64 %10, %14
  br i1 %15, label %16, label %.preheader

16:                                               ; preds = %9
  call void @addReplyError(ptr noundef nonnull %0, ptr noundef nonnull @.str.19) #10
  br label %.loopexit

.preheader:                                       ; preds = %9, %31
  %.0.in = phi i64 [ %.0, %31 ], [ %10, %9 ]
  %.0 = add nsw i64 %.0.in, 2
  %17 = load i32, ptr %11, align 8, !tbaa !74
  %18 = sext i32 %17 to i64
  %19 = icmp slt i64 %.0, %18
  %20 = load ptr, ptr %4, align 8, !tbaa !72
  br i1 %19, label %21, label %35

21:                                               ; preds = %.preheader
  %22 = getelementptr ptr, ptr %20, i64 %.0
  %23 = load ptr, ptr %22, align 8, !tbaa !73
  %24 = getelementptr inbounds nuw i8, ptr %23, i64 8
  %25 = load ptr, ptr %24, align 8, !tbaa !38
  %26 = trunc i64 %.0 to i32
  %.neg = add i32 %26, 1
  %27 = call i32 @strcasecmp(ptr noundef %25, ptr noundef nonnull @.str.20) #13
  %28 = icmp eq i32 %27, 0
  %29 = icmp ne i32 %17, %.neg
  %or.cond = and i1 %29, %28
  br i1 %or.cond, label %31, label %.thread

.thread:                                          ; preds = %21
  %30 = load ptr, ptr getelementptr inbounds nuw (i8, ptr @shared, i64 216), align 8, !tbaa !105
  call void @addReplyErrorObject(ptr noundef nonnull %0, ptr noundef %30) #10
  br label %.loopexit

31:                                               ; preds = %21
  %32 = getelementptr i8, ptr %22, i64 8
  %33 = load ptr, ptr %32, align 8, !tbaa !73
  %34 = call i32 @getPositiveLongFromObjectOrReply(ptr noundef nonnull %0, ptr noundef %33, ptr noundef nonnull %3, ptr noundef nonnull @.str.21) #10
  %.not23 = icmp eq i32 %34, 0
  br i1 %.not23, label %.preheader, label %.loopexit, !llvm.loop !127

35:                                               ; preds = %.preheader
  %36 = getelementptr inbounds nuw i8, ptr %20, i64 16
  %37 = load i64, ptr %2, align 8, !tbaa !50
  %38 = load i64, ptr %3, align 8, !tbaa !50
  call void @sinterGenericCommand(ptr noundef nonnull %0, ptr noundef nonnull %36, i64 noundef %37, ptr noundef null, i32 noundef 1, i64 noundef %38)
  br label %.loopexit

.loopexit:                                        ; preds = %31, %.thread, %1, %35, %16
  call void @llvm.lifetime.end.p0(i64 8, ptr nonnull %3) #10
  call void @llvm.lifetime.end.p0(i64 8, ptr nonnull %2) #10
  ret void
}